target datalayout = "e-m:e-p270:32:32-p271:32:32-p272:64:64-i64:64-i128:128-f80:128-n8:16:32:64-S128"
target triple = "x86_64-pc-linux-gnu"

%struct.H5_user_cb_state_t = type { %struct.H5E_user_cb_state_t }
%struct.H5E_user_cb_state_t = type { i32, %union.anon, ptr }
%union.anon = type { ptr }
%struct.H5FD_t = type { i64, ptr, i64, i32, i64, i64, i64, i64, i64, i8 }
%struct.H5FD_class_t = type { i32, i32, ptr, i64, i32, ptr, ptr, ptr, ptr, i64, ptr, ptr, ptr, i64, ptr, ptr, ptr, ptr, ptr, ptr, ptr, ptr, ptr, ptr, ptr, ptr, ptr, ptr, ptr, ptr, ptr, ptr, ptr, ptr, ptr, ptr, ptr, ptr, ptr, [7 x i32] }

@H5FD_init_g = external global i8, align 1
@H5_libterm_g = external global i8, align 1
@.str = private unnamed_addr constant [101 x i8] c"generated/home/dtcxzyw/WorkSpace/Projects/compilers/llvm-opt-benchmark/bench/hdf5/hdf5/src/H5FDint.c\00", align 1
@H5E_CANTINIT_g = external global i64, align 8
@H5E_FUNC_g = external global i64, align 8
@.str.6 = private unnamed_addr constant [32 x i8] c"interface initialization failed\00", align 1
@H5E_LIB_g = external global i64, align 8
@H5E_CANTSET_g = external global i64, align 8
@.str.7 = private unnamed_addr constant [37 x i8] c"preparation for user callback failed\00", align 1
@H5E_CANTRESTORE_g = external global i64, align 8
@H5E_VFL_g = external global i64, align 8
@__func__.H5FD_set_eoa = private unnamed_addr constant [13 x i8] c"H5FD_set_eoa\00", align 1
@.str.28 = private unnamed_addr constant [30 x i8] c"driver set_eoa request failed\00", align 1

; Function Attrs: nounwind uwtable
define i32 @H5FD_set_eoa(ptr noundef %0, i32 noundef %1, i64 noundef %2) #0 {
  %4 = alloca i32, align 4
  %5 = alloca ptr, align 8
  %6 = alloca i32, align 4
  %7 = alloca i64, align 8
  %8 = alloca i32, align 4
  %9 = alloca i8, align 1
  %10 = alloca %struct.H5_user_cb_state_t, align 8
  %11 = alloca i32, align 4
  store ptr %0, ptr %5, align 8, !tbaa !3
  store i32 %1, ptr %6, align 4, !tbaa !12
  store i64 %2, ptr %7, align 8, !tbaa !10
  call void @llvm.lifetime.start.p0(i64 4, ptr %8) #8
  store i32 0, ptr %8, align 4, !tbaa !12
  call void @llvm.lifetime.start.p0(i64 1, ptr %9) #8
  store i8 0, ptr %9, align 1, !tbaa !14
  %12 = load i8, ptr @H5FD_init_g, align 1, !tbaa !14, !range !16, !noundef !17
  %13 = trunc i8 %12 to i1
  br i1 %13, label %18, label %14

14:                                               ; preds = %3
  %15 = load i8, ptr @H5_libterm_g, align 1, !tbaa !14, !range !16, !noundef !17
  %16 = trunc i8 %15 to i1
  %17 = xor i1 %16, true
  br label %18

18:                                               ; preds = %14, %3
  %19 = phi i1 [ false, %3 ], [ %17, %14 ]
  %20 = xor i1 %19, true
  %21 = xor i1 %20, true
  %22 = zext i1 %21 to i32
  %23 = sext i32 %22 to i64
  %24 = call i64 @llvm.expect.i64(i64 %23, i64 0)
  %25 = icmp ne i64 %24, 0
  br i1 %25, label %26, label %49

26:                                               ; preds = %18
  store i8 1, ptr @H5FD_init_g, align 1, !tbaa !14
  %27 = call i32 @H5FD__init_package()
  %28 = icmp slt i32 %27, 0
  br i1 %28, label %29, label %48

29:                                               ; preds = %26
  store i8 0, ptr @H5FD_init_g, align 1, !tbaa !14
  br label %30

30:                                               ; preds = %29
  br label %31

31:                                               ; preds = %30
  br label %32

32:                                               ; preds = %31
  %33 = load i64, ptr @H5E_FUNC_g, align 8, !tbaa !10
  %34 = load i64, ptr @H5E_CANTINIT_g, align 8, !tbaa !10
  %35 = call i32 (ptr, ptr, i32, i64, i64, ptr, ...) @H5E_printf_stack(ptr noundef @.str, ptr noundef @__func__.H5FD_set_eoa, i32 noundef 2412, i64 noundef %33, i64 noundef %34, ptr noundef @.str.6)
  br label %36

36:                                               ; preds = %32
  br label %37

37:                                               ; preds = %36
  store i8 1, ptr %9, align 1, !tbaa !14
  %38 = load i8, ptr %9, align 1, !tbaa !14, !range !16, !noundef !17
  %39 = trunc i8 %38 to i1
  %40 = zext i1 %39 to i8
  store i8 %40, ptr %9, align 1, !tbaa !14
  br label %41

41:                                               ; preds = %37
  br label %42

42:                                               ; preds = %41
  br label %43

43:                                               ; preds = %42
  store i32 -1, ptr %8, align 4, !tbaa !12
  br label %147

44:                                               ; No predecessors!
  br label %45

45:                                               ; preds = %44
  br label %46

46:                                               ; preds = %45
  br label %47

47:                                               ; preds = %46
  br label %48

48:                                               ; preds = %47, %26
  br label %49

49:                                               ; preds = %48, %18
  %50 = load i8, ptr @H5FD_init_g, align 1, !tbaa !14, !range !16, !noundef !17
  %51 = trunc i8 %50 to i1
  br i1 %51, label %56, label %52

52:                                               ; preds = %49
  %53 = load i8, ptr @H5_libterm_g, align 1, !tbaa !14, !range !16, !noundef !17
  %54 = trunc i8 %53 to i1
  %55 = xor i1 %54, true
  br label %56

56:                                               ; preds = %52, %49
  %57 = phi i1 [ true, %49 ], [ %55, %52 ]
  %58 = xor i1 %57, true
  %59 = xor i1 %58, true
  %60 = zext i1 %59 to i32
  %61 = sext i32 %60 to i64
  %62 = call i64 @llvm.expect.i64(i64 %61, i64 1)
  %63 = icmp ne i64 %62, 0
  br i1 %63, label %64, label %148

64:                                               ; preds = %56
  call void @llvm.lifetime.start.p0(i64 24, ptr %10) #8
  %65 = call i32 @H5_user_cb_prepare(ptr noundef %10)
  %66 = icmp slt i32 %65, 0
  br i1 %66, label %67, label %86

67:                                               ; preds = %64
  br label %68

68:                                               ; preds = %67
  br label %69

69:                                               ; preds = %68
  br label %70

70:                                               ; preds = %69
  %71 = load i64, ptr @H5E_LIB_g, align 8, !tbaa !10
  %72 = load i64, ptr @H5E_CANTSET_g, align 8, !tbaa !10
  %73 = call i32 (ptr, ptr, i32, i64, i64, ptr, ...) @H5E_printf_stack(ptr noundef @.str, ptr noundef @__func__.H5FD_set_eoa, i32 noundef 2418, i64 noundef %71, i64 noundef %72, ptr noundef @.str.7)
  br label %74

74:                                               ; preds = %70
  br label %75

75:                                               ; preds = %74
  store i8 1, ptr %9, align 1, !tbaa !14
  %76 = load i8, ptr %9, align 1, !tbaa !14, !range !16, !noundef !17
  %77 = trunc i8 %76 to i1
  %78 = zext i1 %77 to i8
  store i8 %78, ptr %9, align 1, !tbaa !14
  br label %79

79:                                               ; preds = %75
  br label %80

80:                                               ; preds = %79
  br label %81

81:                                               ; preds = %80
  store i32 -1, ptr %8, align 4, !tbaa !12
  store i32 10, ptr %11, align 4
  br label %122

82:                                               ; No predecessors!
  br label %83

83:                                               ; preds = %82
  br label %84

84:                                               ; preds = %83
  br label %85

85:                                               ; preds = %84
  br label %86

86:                                               ; preds = %85, %64
  %87 = load ptr, ptr %5, align 8, !tbaa !3
  %88 = getelementptr inbounds nuw %struct.H5FD_t, ptr %87, i32 0, i32 1
  %89 = load ptr, ptr %88, align 8, !tbaa !21
  %90 = getelementptr inbounds nuw %struct.H5FD_class_t, ptr %89, i32 0, i32 24
  %91 = load ptr, ptr %90, align 8, !tbaa !30
  %92 = load ptr, ptr %5, align 8, !tbaa !3
  %93 = load i32, ptr %6, align 4, !tbaa !12
  %94 = load i64, ptr %7, align 8, !tbaa !10
  %95 = load ptr, ptr %5, align 8, !tbaa !3
  %96 = getelementptr inbounds nuw %struct.H5FD_t, ptr %95, i32 0, i32 6
  %97 = load i64, ptr %96, align 8, !tbaa !28
  %98 = add i64 %94, %97
  %99 = call i32 %91(ptr noundef %92, i32 noundef %93, i64 noundef %98)
  store i32 %99, ptr %8, align 4, !tbaa !12
  %100 = call i32 @H5_user_cb_restore(ptr noundef %10)
  %101 = icmp slt i32 %100, 0
  br i1 %101, label %102, label %121

102:                                              ; preds = %86
  br label %103

103:                                              ; preds = %102
  br label %104

104:                                              ; preds = %103
  br label %105

105:                                              ; preds = %104
  %106 = load i64, ptr @H5E_LIB_g, align 8, !tbaa !10
  %107 = load i64, ptr @H5E_CANTRESTORE_g, align 8, !tbaa !10
  %108 = call i32 (ptr, ptr, i32, i64, i64, ptr, ...) @H5E_printf_stack(ptr noundef @.str, ptr noundef @__func__.H5FD_set_eoa, i32 noundef 2423, i64 noundef %106, i64 noundef %107, ptr noundef @.str.7)
  br label %109

109:                                              ; preds = %105
  br label %110

110:                                              ; preds = %109
  store i8 1, ptr %9, align 1, !tbaa !14
  %111 = load i8, ptr %9, align 1, !tbaa !14, !range !16, !noundef !17
  %112 = trunc i8 %111 to i1
  %113 = zext i1 %112 to i8
  store i8 %113, ptr %9, align 1, !tbaa !14
  br label %114

114:                                              ; preds = %110
  br label %115

115:                                              ; preds = %114
  br label %116

116:                                              ; preds = %115
  store i32 -1, ptr %8, align 4, !tbaa !12
  store i32 10, ptr %11, align 4
  br label %122

117:                                              ; No predecessors!
  br label %118

118:                                              ; preds = %117
  br label %119

119:                                              ; preds = %118
  br label %120

120:                                              ; preds = %119
  br label %121

121:                                              ; preds = %120, %86
  store i32 0, ptr %11, align 4
  br label %122

122:                                              ; preds = %116, %81, %121
  call void @llvm.lifetime.end.p0(i64 24, ptr %10) #8
  %123 = load i32, ptr %11, align 4
  switch i32 %123, label %150 [
    i32 0, label %124
    i32 10, label %147
  ]

124:                                              ; preds = %122
  %125 = load i32, ptr %8, align 4, !tbaa !12
  %126 = icmp slt i32 %125, 0
  br i1 %126, label %127, label %146

127:                                              ; preds = %124
  br label %128

128:                                              ; preds = %127
  br label %129

129:                                              ; preds = %128
  br label %130

130:                                              ; preds = %129
  %131 = load i64, ptr @H5E_VFL_g, align 8, !tbaa !10
  %132 = load i64, ptr @H5E_CANTINIT_g, align 8, !tbaa !10
  %133 = call i32 (ptr, ptr, i32, i64, i64, ptr, ...) @H5E_printf_stack(ptr noundef @.str, ptr noundef @__func__.H5FD_set_eoa, i32 noundef 2425, i64 noundef %131, i64 noundef %132, ptr noundef @.str.28)
  br label %134

134:                                              ; preds = %130
  br label %135

135:                                              ; preds = %134
  store i8 1, ptr %9, align 1, !tbaa !14
  %136 = load i8, ptr %9, align 1, !tbaa !14, !range !16, !noundef !17
  %137 = trunc i8 %136 to i1
  %138 = zext i1 %137 to i8
  store i8 %138, ptr %9, align 1, !tbaa !14
  br label %139

139:                                              ; preds = %135
  br label %140

140:                                              ; preds = %139
  br label %141

141:                                              ; preds = %140
  store i32 -1, ptr %8, align 4, !tbaa !12
  br label %147

142:                                              ; No predecessors!
  br label %143

143:                                              ; preds = %142
  br label %144

144:                                              ; preds = %143
  br label %145

145:                                              ; preds = %144
  br label %146

146:                                              ; preds = %145, %124
  br label %147

147:                                              ; preds = %146, %122, %141, %43
  br label %148

148:                                              ; preds = %147, %56
  %149 = load i32, ptr %8, align 4, !tbaa !12
  store i32 %149, ptr %4, align 4
  store i32 1, ptr %11, align 4
  br label %150

150:                                              ; preds = %148, %122
  call void @llvm.lifetime.end.p0(i64 1, ptr %9) #8
  call void @llvm.lifetime.end.p0(i64 4, ptr %8) #8
  %151 = load i32, ptr %4, align 4
  ret i32 %151
}