; Function Attrs: nounwind uwtable
define range(i32 -1, -2147483648) i32 @H5FD_set_eoa(ptr noundef %0, i32 noundef %1, i64 noundef %2) local_unnamed_addr #0 {
  %4 = alloca %struct.H5_user_cb_state_t, align 8
  %5 = load i8, ptr @H5FD_init_g, align 1, !tbaa !3, !range !7, !noundef !8
  %6 = trunc nuw i8 %5 to i1
  %7 = load i8, ptr @H5_libterm_g, align 1, !range !7
  %8 = trunc nuw i8 %7 to i1
  %9 = select i1 %6, i1 true, i1 %8
  br i1 %9, label %17, label %10, !prof !9

10:                                               ; preds = %3
  store i8 1, ptr @H5FD_init_g, align 1, !tbaa !3
  %11 = tail call i32 @H5FD__init_package() #12
  %12 = icmp slt i32 %11, 0
  br i1 %12, label %13, label %._crit_edge

._crit_edge:                                      ; preds = %10
  %.pre = load i8, ptr @H5FD_init_g, align 1, !tbaa !3, !range !7
  %.pre18 = load i8, ptr @H5_libterm_g, align 1, !range !7
  %.pre19 = trunc nuw i8 %.pre to i1
  %.pre20 = trunc nuw i8 %.pre18 to i1
  br label %17

13:                                               ; preds = %10
  store i8 0, ptr @H5FD_init_g, align 1, !tbaa !3
  %14 = load i64, ptr @H5E_FUNC_g, align 8, !tbaa !10
  %15 = load i64, ptr @H5E_CANTINIT_g, align 8, !tbaa !10
  %16 = tail call i32 (ptr, ptr, i32, i64, i64, ptr, ...) @H5E_printf_stack(ptr noundef nonnull @.str, ptr noundef nonnull @__func__.H5FD_set_eoa, i32 noundef 2412, i64 noundef %14, i64 noundef %15, ptr noundef nonnull @.str.6) #12
  br label %43

17:                                               ; preds = %._crit_edge, %3
  %.pre-phi21 = phi i1 [ %.pre20, %._crit_edge ], [ %8, %3 ]
  %.pre-phi = phi i1 [ %.pre19, %._crit_edge ], [ %6, %3 ]
  %18 = xor i1 %.pre-phi21, true
  %19 = select i1 %.pre-phi, i1 true, i1 %18
  br i1 %19, label %20, label %43, !prof !9

20:                                               ; preds = %17
  call void @llvm.lifetime.start.p0(i64 24, ptr nonnull %4) #12
  %21 = call i32 @H5_user_cb_prepare(ptr noundef nonnull %4) #12
  %22 = icmp slt i32 %21, 0
  br i1 %22, label %.thread, label %23

23:                                               ; preds = %20
  %24 = getelementptr inbounds nuw i8, ptr %0, i64 8
  %25 = load ptr, ptr %24, align 8, !tbaa !15
  %26 = getelementptr inbounds nuw i8, ptr %25, i64 184
  %27 = load ptr, ptr %26, align 8, !tbaa !26
  %28 = getelementptr inbounds nuw i8, ptr %0, i64 48
  %29 = load i64, ptr %28, align 8, !tbaa !24
  %30 = add i64 %29, %2
  %31 = call i32 %27(ptr noundef %0, i32 noundef %1, i64 noundef %30) #12
  %32 = call i32 @H5_user_cb_restore(ptr noundef nonnull %4) #12
  %33 = icmp slt i32 %32, 0
  br i1 %33, label %.thread, label %37

.thread:                                          ; preds = %23, %20
  %H5E_CANTSET_g.sink = phi ptr [ @H5E_CANTSET_g, %20 ], [ @H5E_CANTRESTORE_g, %23 ]
  %.sink = phi i32 [ 2418, %20 ], [ 2423, %23 ]
  %34 = load i64, ptr @H5E_LIB_g, align 8, !tbaa !10
  %35 = load i64, ptr %H5E_CANTSET_g.sink, align 8, !tbaa !10
  %36 = call i32 (ptr, ptr, i32, i64, i64, ptr, ...) @H5E_printf_stack(ptr noundef nonnull @.str, ptr noundef nonnull @__func__.H5FD_set_eoa, i32 noundef %.sink, i64 noundef %34, i64 noundef %35, ptr noundef nonnull @.str.7) #12
  call void @llvm.lifetime.end.p0(i64 24, ptr nonnull %4) #12
  br label %43

37:                                               ; preds = %23
  call void @llvm.lifetime.end.p0(i64 24, ptr nonnull %4) #12
  %38 = icmp slt i32 %31, 0
  br i1 %38, label %39, label %43

39:                                               ; preds = %37
  %40 = load i64, ptr @H5E_VFL_g, align 8, !tbaa !10
  %41 = load i64, ptr @H5E_CANTINIT_g, align 8, !tbaa !10
  %42 = call i32 (ptr, ptr, i32, i64, i64, ptr, ...) @H5E_printf_stack(ptr noundef nonnull @.str, ptr noundef nonnull @__func__.H5FD_set_eoa, i32 noundef 2425, i64 noundef %40, i64 noundef %41, ptr noundef nonnull @.str.28) #12
  br label %43

43:                                               ; preds = %.thread, %37, %17, %39, %13
  %.013 = phi i32 [ -1, %13 ], [ %31, %37 ], [ -1, %39 ], [ 0, %17 ], [ -1, %.thread ]
  ret i32 %.013
}